; ModuleID = 'source-C-CXX/27/236.c'
source_filename = "source-C-CXX/27/236.c"
target datalayout = "e-m:e-p270:32:32-p271:32:32-p272:64:64-i64:64-f80:128-n8:16:32:64-S128"
target triple = "x86_64-pc-linux-gnu"

@.str = private unnamed_addr constant [3 x i8] c"%d\00", align 1
@.str.1 = private unnamed_addr constant [4 x i8] c",%d\00", align 1

; Function Attrs: nounwind sspstrong uwtable
define dso_local i32 @main() local_unnamed_addr #0 {
  %1 = alloca [4000 x i8], align 16
  %2 = getelementptr inbounds [4000 x i8], [4000 x i8]* %1, i64 0, i64 0
  call void @llvm.lifetime.start.p0i8(i64 4000, i8* nonnull %2) #5
  %3 = call i32 (i8*, ...) bitcast (i32 (...)* @gets to i32 (i8*, ...)*)(i8* nonnull %2) #5
  br label %4

4:                                                ; preds = %23, %0
  %5 = phi i32 [ 0, %0 ], [ %29, %23 ]
  %6 = sext i32 %5 to i64
  %7 = getelementptr inbounds [4000 x i8], [4000 x i8]* %1, i64 0, i64 %6
  %8 = load i8, i8* %7, align 1, !tbaa !5
  %9 = icmp eq i8 %8, 32
  br i1 %9, label %23, label %10

10:                                               ; preds = %4, %21
  %11 = phi i64 [ %22, %21 ], [ 1, %4 ]
  %12 = add nsw i64 %11, %6
  %13 = getelementptr inbounds [4000 x i8], [4000 x i8]* %1, i64 0, i64 %12
  %14 = load i8, i8* %13, align 1, !tbaa !5
  switch i8 %14, label %21 [
    i8 32, label %15
    i8 0, label %15
  ]

15:                                               ; preds = %10, %10
  %16 = trunc i64 %12 to i32
  %17 = trunc i64 %11 to i32
  %18 = icmp eq i32 %5, 0
  %19 = select i1 %18, i8* getelementptr inbounds ([3 x i8], [3 x i8]* @.str, i64 0, i64 0), i8* getelementptr inbounds ([4 x i8], [4 x i8]* @.str.1, i64 0, i64 0)
  %20 = call i32 (i8*, ...) @printf(i8* nonnull dereferenceable(1) %19, i32 %17)
  br label %23

21:                                               ; preds = %10
  %22 = add nuw i64 %11, 1
  br label %10

23:                                               ; preds = %15, %4
  %24 = phi i32 [ %5, %4 ], [ %16, %15 ]
  %25 = sext i32 %24 to i64
  %26 = getelementptr inbounds [4000 x i8], [4000 x i8]* %1, i64 0, i64 %25
  %27 = load i8, i8* %26, align 1, !tbaa !5
  %28 = icmp eq i8 %27, 0
  %29 = add nsw i32 %24, 1
  br i1 %28, label %30, label %4

30:                                               ; preds = %23
  %31 = call i32 @putchar(i32 10)
  call void @llvm.lifetime.end.p0i8(i64 4000, i8* nonnull %2) #5
  ret i32 0
}

; Function Attrs: argmemonly mustprogress nofree nosync nounwind willreturn
declare void @llvm.lifetime.start.p0i8(i64 immarg, i8* nocapture) #1

declare i32 @gets(...) local_unnamed_addr #2

; Function Attrs: nofree nounwind
declare noundef i32 @printf(i8* nocapture noundef readonly, ...) local_unnamed_addr #3

; Function Attrs: argmemonly mustprogress nofree nosync nounwind willreturn
declare void @llvm.lifetime.end.p0i8(i64 immarg, i8* nocapture) #1

; Function Attrs: nofree nounwind
declare noundef i32 @putchar(i32 noundef) local_unnamed_addr #4


!llvm.module.flags = !{!0, !1, !2, !3}
!llvm.ident = !{!4}

!0 = !{i32 1, !"wchar_size", i32 4}
!1 = !{i32 7, !"PIC Level", i32 2}
!2 = !{i32 7, !"PIE Level", i32 2}
!3 = !{i32 7, !"uwtable", i32 1}
!4 = !{!"clang version 13.0.0"}
!5 = !{!6, !6, i64 0}
!6 = !{!"omnipotent char", !7, i64 0}
!7 = !{!"Simple C/C++ TBAA"}
